target datalayout = "e-m:e-p270:32:32-p271:32:32-p272:64:64-i64:64-i128:128-f80:128-n8:16:32:64-S128"
target triple = "x86_64-pc-linux-gnu"

%"class.gmx::FlagsTemplate" = type { i64 }
%"class.gmx::(anonymous namespace)::FileTypeHandler" = type { i32, i32, ptr }
%"class.std::__cxx11::basic_string" = type { %"struct.std::__cxx11::basic_string<char>::_Alloc_hider", i64, %union.anon }
%"struct.std::__cxx11::basic_string<char>::_Alloc_hider" = type { ptr }
%union.anon = type { i64, [8 x i8] }
%"class.gmx::FileNameOptionStorage" = type <{ %"class.gmx::OptionStorageTemplateSimple.base", [7 x i8], %"class.gmx::FileNameOptionInfo", ptr, i32, [4 x i8], ptr, i8, i8, i8, i8, [4 x i8] }>
%"class.gmx::OptionStorageTemplateSimple.base" = type <{ %"class.gmx::OptionStorageTemplate", %"class.gmx::OptionValueConverterSimple", i8 }>
%"class.gmx::OptionStorageTemplate" = type { %"class.gmx::AbstractOptionStorage.base", %"class.std::vector", %"class.std::unique_ptr", %"class.std::unique_ptr.5" }
%"class.gmx::AbstractOptionStorage.base" = type <{ ptr, %"class.std::__cxx11::basic_string", %"class.std::__cxx11::basic_string", %"class.gmx::FlagsTemplate", ptr, i32, i32, i8, i8 }>
%"class.std::vector" = type { %"struct.std::_Vector_base" }
%"struct.std::_Vector_base" = type { %"struct.std::_Vector_base<std::__cxx11::basic_string<char>, std::allocator<std::__cxx11::basic_string<char>>>::_Vector_impl" }
%"struct.std::_Vector_base<std::__cxx11::basic_string<char>, std::allocator<std::__cxx11::basic_string<char>>>::_Vector_impl" = type { %"struct.std::_Vector_base<std::__cxx11::basic_string<char>, std::allocator<std::__cxx11::basic_string<char>>>::_Vector_impl_data" }
%"struct.std::_Vector_base<std::__cxx11::basic_string<char>, std::allocator<std::__cxx11::basic_string<char>>>::_Vector_impl_data" = type { ptr, ptr, ptr }
%"class.std::unique_ptr" = type { %"struct.std::__uniq_ptr_data" }
%"struct.std::__uniq_ptr_data" = type { %"class.std::__uniq_ptr_impl" }
%"class.std::__uniq_ptr_impl" = type { %"class.std::tuple" }
%"class.std::tuple" = type { %"struct.std::_Tuple_impl" }
%"struct.std::_Tuple_impl" = type { %"struct.std::_Head_base.4" }
%"struct.std::_Head_base.4" = type { ptr }
%"class.std::unique_ptr.5" = type { %"struct.std::__uniq_ptr_data.6" }
%"struct.std::__uniq_ptr_data.6" = type { %"class.std::__uniq_ptr_impl.7" }
%"class.std::__uniq_ptr_impl.7" = type { %"class.std::tuple.8" }
%"class.std::tuple.8" = type { %"struct.std::_Tuple_impl.9" }
%"struct.std::_Tuple_impl.9" = type { %"struct.std::_Head_base.12" }
%"struct.std::_Head_base.12" = type { ptr }
%"class.gmx::OptionValueConverterSimple" = type { %"class.std::map" }
%"class.std::map" = type { %"class.std::_Rb_tree" }
%"class.std::_Rb_tree" = type { %"struct.std::_Rb_tree<std::type_index, std::pair<const std::type_index, std::function<std::__cxx11::basic_string<char> (const gmx::Any &)>>, std::_Select1st<std::pair<const std::type_index, std::function<std::__cxx11::basic_string<char> (const gmx::Any &)>>>, std::less<std::type_index>>::_Rb_tree_impl" }
%"struct.std::_Rb_tree<std::type_index, std::pair<const std::type_index, std::function<std::__cxx11::basic_string<char> (const gmx::Any &)>>, std::_Select1st<std::pair<const std::type_index, std::function<std::__cxx11::basic_string<char> (const gmx::Any &)>>>, std::less<std::type_index>>::_Rb_tree_impl" = type { %"struct.std::_Rb_tree_key_compare", %"struct.std::_Rb_tree_header" }
%"struct.std::_Rb_tree_key_compare" = type { %"struct.std::less" }
%"struct.std::less" = type { i8 }
%"struct.std::_Rb_tree_header" = type { %"struct.std::_Rb_tree_node_base", i64 }
%"struct.std::_Rb_tree_node_base" = type { i32, ptr, ptr, ptr }
%"class.gmx::FileNameOptionInfo" = type { %"class.gmx::OptionInfo" }
%"class.gmx::OptionInfo" = type { ptr, ptr }

@.str.1 = private unnamed_addr constant [2 x i8] c"/\00", align 1
@.str.2 = private unnamed_addr constant [5 x i8] c"/...\00", align 1
@.str.3 = private unnamed_addr constant [4 x i8] c"dir\00", align 1
@.str.4 = private unnamed_addr constant [5 x i8] c"file\00", align 1

; Function Attrs: mustprogress nounwind uwtable
define noundef zeroext i1 @_ZNK3gmx21FileNameOptionStorage17isDirectoryOptionEv(ptr noundef nonnull align 8 dereferenceable(244) %0) #1 align 2 {
  %2 = alloca ptr, align 8
  store ptr %0, ptr %2, align 8
  %3 = load ptr, ptr %2, align 8
  %4 = getelementptr inbounds %"class.gmx::FileNameOptionStorage", ptr %3, i32 0, i32 4
  %5 = load i32, ptr %4, align 8
  %6 = icmp eq i32 %5, 41
  ret i1 %6
}

; Function Attrs: mustprogress uwtable
define internal noundef ptr @_ZNK3gmx12_GLOBAL__N_115FileTypeHandler9extensionEi(ptr noundef nonnull align 8 dereferenceable(16) %0, i32 noundef %1) #0 align 2 {
  %3 = alloca ptr, align 8
  %4 = alloca ptr, align 8
  %5 = alloca i32, align 4
  store ptr %0, ptr %4, align 8
  store i32 %1, ptr %5, align 4
  %6 = load ptr, ptr %4, align 8
  %7 = getelementptr inbounds %"class.gmx::(anonymous namespace)::FileTypeHandler", ptr %6, i32 0, i32 2
  %8 = load ptr, ptr %7, align 8
  %9 = icmp ne ptr %8, null
  br i1 %9, label %10, label %18

10:                                               ; preds = %2
  %11 = getelementptr inbounds %"class.gmx::(anonymous namespace)::FileTypeHandler", ptr %6, i32 0, i32 2
  %12 = load ptr, ptr %11, align 8
  %13 = load i32, ptr %5, align 4
  %14 = sext i32 %13 to i64
  %15 = getelementptr inbounds i32, ptr %12, i64 %14
  %16 = load i32, ptr %15, align 4
  %17 = call noundef ptr @_Z16ftp2ext_with_doti(i32 noundef %16)
  store ptr %17, ptr %3, align 8
  br label %22

18:                                               ; preds = %2
  %19 = getelementptr inbounds %"class.gmx::(anonymous namespace)::FileTypeHandler", ptr %6, i32 0, i32 0
  %20 = load i32, ptr %19, align 8
  %21 = call noundef ptr @_Z16ftp2ext_with_doti(i32 noundef %20)
  store ptr %21, ptr %3, align 8
  br label %22

22:                                               ; preds = %18, %10
  %23 = load ptr, ptr %3, align 8
  ret ptr %23
}

; Function Attrs: mustprogress nounwind uwtable
define internal noundef i32 @_ZNK3gmx12_GLOBAL__N_115FileTypeHandler14extensionCountEv(ptr noundef nonnull align 8 dereferenceable(16) %0) #1 align 2 {
  %2 = alloca ptr, align 8
  store ptr %0, ptr %2, align 8
  %3 = load ptr, ptr %2, align 8
  %4 = getelementptr inbounds %"class.gmx::(anonymous namespace)::FileTypeHandler", ptr %3, i32 0, i32 1
  %5 = load i32, ptr %4, align 4
  ret i32 %5
}

; Function Attrs: mustprogress uwtable
define internal void @_ZN3gmx12_GLOBAL__N_115FileTypeHandlerC2Ei(ptr noundef nonnull align 8 dereferenceable(16) %0, i32 noundef %1) unnamed_addr #0 align 2 {
  %3 = alloca ptr, align 8
  %4 = alloca i32, align 4
  %5 = alloca i32, align 4
  store ptr %0, ptr %3, align 8
  store i32 %1, ptr %4, align 4
  %6 = load ptr, ptr %3, align 8
  %7 = getelementptr inbounds %"class.gmx::(anonymous namespace)::FileTypeHandler", ptr %6, i32 0, i32 0
  %8 = load i32, ptr %4, align 4
  store i32 %8, ptr %7, align 8
  %9 = getelementptr inbounds %"class.gmx::(anonymous namespace)::FileTypeHandler", ptr %6, i32 0, i32 1
  store i32 0, ptr %9, align 4
  %10 = getelementptr inbounds %"class.gmx::(anonymous namespace)::FileTypeHandler", ptr %6, i32 0, i32 2
  store ptr null, ptr %10, align 8
  %11 = getelementptr inbounds %"class.gmx::(anonymous namespace)::FileTypeHandler", ptr %6, i32 0, i32 0
  %12 = load i32, ptr %11, align 8
  %13 = icmp sge i32 %12, 0
  br i1 %13, label %14, label %39

14:                                               ; preds = %2
  %15 = getelementptr inbounds %"class.gmx::(anonymous namespace)::FileTypeHandler", ptr %6, i32 0, i32 0
  %16 = load i32, ptr %15, align 8
  %17 = call noundef i32 @_Z17ftp2generic_counti(i32 noundef %16)
  store i32 %17, ptr %5, align 4
  %18 = load i32, ptr %5, align 4
  %19 = icmp sgt i32 %18, 0
  br i1 %19, label %20, label %27

20:                                               ; preds = %14
  %21 = load i32, ptr %5, align 4
  %22 = getelementptr inbounds %"class.gmx::(anonymous namespace)::FileTypeHandler", ptr %6, i32 0, i32 1
  store i32 %21, ptr %22, align 4
  %23 = getelementptr inbounds %"class.gmx::(anonymous namespace)::FileTypeHandler", ptr %6, i32 0, i32 0
  %24 = load i32, ptr %23, align 8
  %25 = call noundef ptr @_Z16ftp2generic_listi(i32 noundef %24)
  %26 = getelementptr inbounds %"class.gmx::(anonymous namespace)::FileTypeHandler", ptr %6, i32 0, i32 2
  store ptr %25, ptr %26, align 8
  br label %38

27:                                               ; preds = %14
  %28 = getelementptr inbounds %"class.gmx::(anonymous namespace)::FileTypeHandler", ptr %6, i32 0, i32 0
  %29 = load i32, ptr %28, align 8
  %30 = call noundef ptr @_Z16ftp2ext_with_doti(i32 noundef %29)
  %31 = getelementptr inbounds i8, ptr %30, i64 0
  %32 = load i8, ptr %31, align 1
  %33 = sext i8 %32 to i32
  %34 = icmp ne i32 %33, 0
  br i1 %34, label %35, label %37

35:                                               ; preds = %27
  %36 = getelementptr inbounds %"class.gmx::(anonymous namespace)::FileTypeHandler", ptr %6, i32 0, i32 1
  store i32 1, ptr %36, align 4
  br label %37

37:                                               ; preds = %35, %27
  br label %38

38:                                               ; preds = %37, %20
  br label %39

39:                                               ; preds = %38, %2
  ret void
}

; Function Attrs: mustprogress uwtable
define void @_ZNK3gmx21FileNameOptionStorage10typeStringB5cxx11Ev(ptr dead_on_unwind noalias writable sret(%"class.std::__cxx11::basic_string") align 8 %0, ptr noundef nonnull align 8 dereferenceable(244) %1) unnamed_addr #0 align 2 personality ptr @__gxx_personality_v0 {
  %3 = alloca ptr, align 8
  %4 = alloca ptr, align 8
  %5 = alloca %"class.gmx::(anonymous namespace)::FileTypeHandler", align 8
  %6 = alloca i1, align 1
  %7 = alloca i32, align 4
  %8 = alloca ptr, align 8
  %9 = alloca i32, align 4
  store ptr %0, ptr %3, align 8
  store ptr %1, ptr %4, align 8
  %10 = load ptr, ptr %4, align 8
  %11 = getelementptr inbounds %"class.gmx::FileNameOptionStorage", ptr %10, i32 0, i32 4
  %12 = load i32, ptr %11, align 8
  call void @_ZN3gmx12_GLOBAL__N_115FileTypeHandlerC2Ei(ptr noundef nonnull align 8 dereferenceable(16) %5, i32 noundef %12)
  store i1 false, ptr %6, align 1
  call void @_ZNSt7__cxx1112basic_stringIcSt11char_traitsIcESaIcEEC1Ev(ptr noundef nonnull align 8 dereferenceable(32) %0) #12
  store i32 0, ptr %7, align 4
  br label %13

13:                                               ; preds = %39, %2
  %14 = load i32, ptr %7, align 4
  %15 = icmp slt i32 %14, 2
  br i1 %15, label %16, label %21

16:                                               ; preds = %13
  %17 = load i32, ptr %7, align 4
  %18 = invoke noundef i32 @_ZNK3gmx12_GLOBAL__N_115FileTypeHandler14extensionCountEv(ptr noundef nonnull align 8 dereferenceable(16) %5)
          to label %19 unwind label %29

19:                                               ; preds = %16
  %20 = icmp slt i32 %17, %18
  br label %21

21:                                               ; preds = %19, %13
  %22 = phi i1 [ false, %13 ], [ %20, %19 ]
  br i1 %22, label %23, label %42

23:                                               ; preds = %21
  %24 = load i32, ptr %7, align 4
  %25 = icmp sgt i32 %24, 0
  br i1 %25, label %26, label %33

26:                                               ; preds = %23
  %27 = invoke noundef nonnull align 8 dereferenceable(32) ptr @_ZNSt7__cxx1112basic_stringIcSt11char_traitsIcESaIcEE6appendEPKc(ptr noundef nonnull align 8 dereferenceable(32) %0, ptr noundef @.str.1)
          to label %28 unwind label %29

28:                                               ; preds = %26
  br label %33

29:                                               ; preds = %58, %55, %52, %47, %42, %36, %33, %26, %16
  %30 = landingpad { ptr, i32 }
          cleanup
  %31 = extractvalue { ptr, i32 } %30, 0
  store ptr %31, ptr %8, align 8
  %32 = extractvalue { ptr, i32 } %30, 1
  store i32 %32, ptr %9, align 4
  call void @_ZNSt7__cxx1112basic_stringIcSt11char_traitsIcESaIcEED1Ev(ptr noundef nonnull align 8 dereferenceable(32) %0) #12
  br label %66

33:                                               ; preds = %28, %23
  %34 = load i32, ptr %7, align 4
  %35 = invoke noundef ptr @_ZNK3gmx12_GLOBAL__N_115FileTypeHandler9extensionEi(ptr noundef nonnull align 8 dereferenceable(16) %5, i32 noundef %34)
          to label %36 unwind label %29

36:                                               ; preds = %33
  %37 = invoke noundef nonnull align 8 dereferenceable(32) ptr @_ZNSt7__cxx1112basic_stringIcSt11char_traitsIcESaIcEE6appendEPKc(ptr noundef nonnull align 8 dereferenceable(32) %0, ptr noundef %35)
          to label %38 unwind label %29

38:                                               ; preds = %36
  br label %39

39:                                               ; preds = %38
  %40 = load i32, ptr %7, align 4
  %41 = add nsw i32 %40, 1
  store i32 %41, ptr %7, align 4
  br label %13, !llvm.loop !6

42:                                               ; preds = %21
  %43 = load i32, ptr %7, align 4
  %44 = invoke noundef i32 @_ZNK3gmx12_GLOBAL__N_115FileTypeHandler14extensionCountEv(ptr noundef nonnull align 8 dereferenceable(16) %5)
          to label %45 unwind label %29

45:                                               ; preds = %42
  %46 = icmp slt i32 %43, %44
  br i1 %46, label %47, label %50

47:                                               ; preds = %45
  %48 = invoke noundef nonnull align 8 dereferenceable(32) ptr @_ZNSt7__cxx1112basic_stringIcSt11char_traitsIcESaIcEE6appendEPKc(ptr noundef nonnull align 8 dereferenceable(32) %0, ptr noundef @.str.2)
          to label %49 unwind label %29

49:                                               ; preds = %47
  br label %50

50:                                               ; preds = %49, %45
  %51 = call noundef zeroext i1 @_ZNKSt7__cxx1112basic_stringIcSt11char_traitsIcESaIcEE5emptyEv(ptr noundef nonnull align 8 dereferenceable(32) %0) #12
  br i1 %51, label %52, label %62

52:                                               ; preds = %50
  %53 = invoke noundef zeroext i1 @_ZNK3gmx21FileNameOptionStorage17isDirectoryOptionEv(ptr noundef nonnull align 8 dereferenceable(244) %10)
          to label %54 unwind label %29

54:                                               ; preds = %52
  br i1 %53, label %55, label %58

55:                                               ; preds = %54
  %56 = invoke noundef nonnull align 8 dereferenceable(32) ptr @_ZNSt7__cxx1112basic_stringIcSt11char_traitsIcESaIcEEaSEPKc(ptr noundef nonnull align 8 dereferenceable(32) %0, ptr noundef @.str.3)
          to label %57 unwind label %29

57:                                               ; preds = %55
  br label %61

58:                                               ; preds = %54
  %59 = invoke noundef nonnull align 8 dereferenceable(32) ptr @_ZNSt7__cxx1112basic_stringIcSt11char_traitsIcESaIcEEaSEPKc(ptr noundef nonnull align 8 dereferenceable(32) %0, ptr noundef @.str.4)
          to label %60 unwind label %29

60:                                               ; preds = %58
  br label %61

61:                                               ; preds = %60, %57
  br label %62

62:                                               ; preds = %61, %50
  store i1 true, ptr %6, align 1
  %63 = load i1, ptr %6, align 1
  br i1 %63, label %65, label %64

64:                                               ; preds = %62
  call void @_ZNSt7__cxx1112basic_stringIcSt11char_traitsIcESaIcEED1Ev(ptr noundef nonnull align 8 dereferenceable(32) %0) #12
  br label %65

65:                                               ; preds = %64, %62
  ret void

66:                                               ; preds = %29
  %67 = load ptr, ptr %8, align 8
  %68 = load i32, ptr %9, align 4
  %69 = insertvalue { ptr, i32 } poison, ptr %67, 0
  %70 = insertvalue { ptr, i32 } %69, i32 %68, 1
  resume { ptr, i32 } %70
}