; Function Attrs: mustprogress uwtable
define void @_ZNK3gmx21FileNameOptionStorage10typeStringB5cxx11Ev(ptr dead_on_unwind noalias writable sret(%"class.std::__cxx11::basic_string") align 8 %0, ptr nocapture noundef nonnull readonly align 8 dereferenceable(244) %1) unnamed_addr #0 align 2 personality ptr @__gxx_personality_v0 {
  %3 = getelementptr inbounds i8, ptr %1, i64 224
  %4 = load i32, ptr %3, align 8
  %5 = icmp sgt i32 %4, -1
  br i1 %5, label %6, label %_ZN3gmx12_GLOBAL__N_115FileTypeHandlerC2Ei.exit

6:                                                ; preds = %2
  %7 = tail call noundef i32 @_Z17ftp2generic_counti(i32 noundef %4)
  %8 = icmp sgt i32 %7, 0
  br i1 %8, label %9, label %11

9:                                                ; preds = %6
  %10 = tail call noundef ptr @_Z16ftp2generic_listi(i32 noundef %4)
  br label %_ZN3gmx12_GLOBAL__N_115FileTypeHandlerC2Ei.exit

11:                                               ; preds = %6
  %12 = tail call noundef ptr @_Z16ftp2ext_with_doti(i32 noundef %4)
  %13 = load i8, ptr %12, align 1
  %.not.i = icmp ne i8 %13, 0
  %spec.select = zext i1 %.not.i to i32
  br label %_ZN3gmx12_GLOBAL__N_115FileTypeHandlerC2Ei.exit

_ZN3gmx12_GLOBAL__N_115FileTypeHandlerC2Ei.exit:  ; preds = %11, %2, %9
  %.sroa.4.0 = phi i32 [ %7, %9 ], [ 0, %2 ], [ %spec.select, %11 ]
  %.sroa.9.0 = phi ptr [ %10, %9 ], [ null, %2 ], [ null, %11 ]
  tail call void @_ZNSt7__cxx1112basic_stringIcSt11char_traitsIcESaIcEEC1Ev(ptr noundef nonnull align 8 dereferenceable(32) %0) #22
  %invariant.umin = tail call i32 @llvm.umin.i32(i32 %.sroa.4.0, i32 2)
  %or.cond17.not = icmp eq i32 %.sroa.4.0, 0
  br i1 %or.cond17.not, label %.critedge, label %.lr.ph

.lr.ph:                                           ; preds = %_ZN3gmx12_GLOBAL__N_115FileTypeHandlerC2Ei.exit
  %.not.i12 = icmp eq ptr %.sroa.9.0, null
  br i1 %.not.i12, label %.lr.ph.split.us, label %.lr.ph.split.preheader

.lr.ph.split.preheader:                           ; preds = %.lr.ph
  %wide.trip.count = zext nneg i32 %invariant.umin to i64
  br label %.lr.ph.split

.lr.ph.split.us:                                  ; preds = %.lr.ph, %20
  %.018.us = phi i32 [ %21, %20 ], [ 0, %.lr.ph ]
  %14 = icmp eq i32 %.018.us, 1
  br i1 %14, label %15, label %17

15:                                               ; preds = %.lr.ph.split.us
  %16 = invoke noundef nonnull align 8 dereferenceable(32) ptr @_ZNSt7__cxx1112basic_stringIcSt11char_traitsIcESaIcEE6appendEPKc(ptr noundef nonnull align 8 dereferenceable(32) %0, ptr noundef nonnull @.str.1)
          to label %17 unwind label %.loopexit.split.us

17:                                               ; preds = %15, %.lr.ph.split.us
  %18 = invoke noundef ptr @_Z16ftp2ext_with_doti(i32 noundef %4)
          to label %_ZNK3gmx12_GLOBAL__N_115FileTypeHandler9extensionEi.exit.us unwind label %.loopexit.split.us

_ZNK3gmx12_GLOBAL__N_115FileTypeHandler9extensionEi.exit.us: ; preds = %17
  %19 = invoke noundef nonnull align 8 dereferenceable(32) ptr @_ZNSt7__cxx1112basic_stringIcSt11char_traitsIcESaIcEE6appendEPKc(ptr noundef nonnull align 8 dereferenceable(32) %0, ptr noundef %18)
          to label %20 unwind label %.loopexit.split.us

20:                                               ; preds = %_ZNK3gmx12_GLOBAL__N_115FileTypeHandler9extensionEi.exit.us
  %21 = add nuw nsw i32 %.018.us, 1
  %exitcond23.not = icmp eq i32 %21, %invariant.umin
  br i1 %exitcond23.not, label %.critedge, label %.lr.ph.split.us, !llvm.loop !9

.loopexit.split.us:                               ; preds = %_ZNK3gmx12_GLOBAL__N_115FileTypeHandler9extensionEi.exit.us, %17, %15
  %lpad.loopexit.us = landingpad { ptr, i32 }
          cleanup
  br label %.loopexit

.lr.ph.split:                                     ; preds = %.lr.ph.split.preheader, %30
  %indvars.iv = phi i64 [ 0, %.lr.ph.split.preheader ], [ %indvars.iv.next, %30 ]
  %22 = icmp eq i64 %indvars.iv, 1
  br i1 %22, label %23, label %25

23:                                               ; preds = %.lr.ph.split
  %24 = invoke noundef nonnull align 8 dereferenceable(32) ptr @_ZNSt7__cxx1112basic_stringIcSt11char_traitsIcESaIcEE6appendEPKc(ptr noundef nonnull align 8 dereferenceable(32) %0, ptr noundef nonnull @.str.1)
          to label %25 unwind label %.loopexit.split

.loopexit.split:                                  ; preds = %23, %_ZNK3gmx12_GLOBAL__N_115FileTypeHandler9extensionEi.exit, %25
  %lpad.loopexit = landingpad { ptr, i32 }
          cleanup
  br label %.loopexit

.loopexit.split-lp:                               ; preds = %.invoke, %32
  %lpad.loopexit.split-lp = landingpad { ptr, i32 }
          cleanup
  br label %.loopexit

.loopexit:                                        ; preds = %.loopexit.split, %.loopexit.split.us, %.loopexit.split-lp
  %lpad.phi = phi { ptr, i32 } [ %lpad.loopexit.split-lp, %.loopexit.split-lp ], [ %lpad.loopexit, %.loopexit.split ], [ %lpad.loopexit.us, %.loopexit.split.us ]
  tail call void @_ZNSt7__cxx1112basic_stringIcSt11char_traitsIcESaIcEED1Ev(ptr noundef nonnull align 8 dereferenceable(32) %0) #22
  resume { ptr, i32 } %lpad.phi

25:                                               ; preds = %23, %.lr.ph.split
  %26 = getelementptr inbounds i32, ptr %.sroa.9.0, i64 %indvars.iv
  %27 = load i32, ptr %26, align 4
  %28 = invoke noundef ptr @_Z16ftp2ext_with_doti(i32 noundef %27)
          to label %_ZNK3gmx12_GLOBAL__N_115FileTypeHandler9extensionEi.exit unwind label %.loopexit.split

_ZNK3gmx12_GLOBAL__N_115FileTypeHandler9extensionEi.exit: ; preds = %25
  %29 = invoke noundef nonnull align 8 dereferenceable(32) ptr @_ZNSt7__cxx1112basic_stringIcSt11char_traitsIcESaIcEE6appendEPKc(ptr noundef nonnull align 8 dereferenceable(32) %0, ptr noundef %28)
          to label %30 unwind label %.loopexit.split

30:                                               ; preds = %_ZNK3gmx12_GLOBAL__N_115FileTypeHandler9extensionEi.exit
  %indvars.iv.next = add nuw nsw i64 %indvars.iv, 1
  %exitcond.not = icmp eq i64 %indvars.iv.next, %wide.trip.count
  br i1 %exitcond.not, label %.critedge, label %.lr.ph.split, !llvm.loop !9

.critedge:                                        ; preds = %30, %20, %_ZN3gmx12_GLOBAL__N_115FileTypeHandlerC2Ei.exit
  %.0.lcssa = phi i32 [ 0, %_ZN3gmx12_GLOBAL__N_115FileTypeHandlerC2Ei.exit ], [ %invariant.umin, %20 ], [ %invariant.umin, %30 ]
  %31 = icmp slt i32 %.0.lcssa, %.sroa.4.0
  br i1 %31, label %32, label %34

32:                                               ; preds = %.critedge
  %33 = invoke noundef nonnull align 8 dereferenceable(32) ptr @_ZNSt7__cxx1112basic_stringIcSt11char_traitsIcESaIcEE6appendEPKc(ptr noundef nonnull align 8 dereferenceable(32) %0, ptr noundef nonnull @.str.2)
          to label %34 unwind label %.loopexit.split-lp

34:                                               ; preds = %32, %.critedge
  %35 = tail call noundef zeroext i1 @_ZNKSt7__cxx1112basic_stringIcSt11char_traitsIcESaIcEE5emptyEv(ptr noundef nonnull align 8 dereferenceable(32) %0) #22
  br i1 %35, label %.invoke, label %39

.invoke:                                          ; preds = %34
  %36 = load i32, ptr %3, align 8
  %37 = icmp eq i32 %36, 41
  %.str.3..str.4 = select i1 %37, ptr @.str.3, ptr @.str.4
  %38 = invoke noundef nonnull align 8 dereferenceable(32) ptr @_ZNSt7__cxx1112basic_stringIcSt11char_traitsIcESaIcEEaSEPKc(ptr noundef nonnull align 8 dereferenceable(32) %0, ptr noundef nonnull %.str.3..str.4)
          to label %39 unwind label %.loopexit.split-lp

39:                                               ; preds = %.invoke, %34
  ret void
}